target datalayout = "e-m:e-p270:32:32-p271:32:32-p272:64:64-i64:64-i128:128-f80:128-n8:16:32:64-S128"
target triple = "x86_64-pc-linux-gnu"

%struct.nghttp2_stream = type { i32, %struct.nghttp2_pq_entry, i64, i64, i64, i64, ptr, ptr, ptr, i64, i32, i32, i32, i32, i32, i32, i32, i16, i32, i8, i8, i8, i8, i8, i8 }
%struct.nghttp2_pq_entry = type { i64 }
%struct.nghttp2_session = type { %struct.nghttp2_map, %struct.nghttp2_outbound_queue, %struct.nghttp2_outbound_queue, %struct.nghttp2_outbound_queue, [8 x %struct.anon], %struct.nghttp2_active_outbound_item, %struct.nghttp2_inbound_frame, %struct.nghttp2_hd_deflater, %struct.nghttp2_hd_inflater, %struct.nghttp2_session_callbacks, %struct.nghttp2_mem, ptr, ptr, %struct.nghttp2_ratelim, i64, i64, i64, i64, i64, i64, i64, i64, i64, i64, i64, i64, i64, i64, i32, i32, i32, i32, i32, i32, i32, i32, i32, i32, i32, i32, i8, %struct.nghttp2_settings_storage, %struct.nghttp2_settings_storage, i32, i32, i32, i8, i8, i8, i8, i8, i8, [32 x i8] }
%struct.nghttp2_map = type { ptr, ptr, i64, i64 }
%struct.nghttp2_outbound_queue = type { ptr, ptr, i64 }
%struct.anon = type { %struct.nghttp2_pq }
%struct.nghttp2_pq = type { ptr, ptr, i64, i64, ptr }
%struct.nghttp2_active_outbound_item = type { ptr, %struct.nghttp2_bufs, i32 }
%struct.nghttp2_bufs = type { ptr, ptr, ptr, i64, i64, i64, i64, i64 }
%struct.nghttp2_inbound_frame = type { %union.nghttp2_frame, %union.nghttp2_ext_frame_payload, ptr, %struct.nghttp2_buf, %struct.nghttp2_buf, ptr, i64, i64, i64, i64, i32, [32 x i8] }
%union.nghttp2_frame = type { %struct.nghttp2_headers }
%struct.nghttp2_headers = type { %struct.nghttp2_frame_hd, i64, %struct.nghttp2_priority_spec, ptr, i64, i32 }
%struct.nghttp2_frame_hd = type { i64, i32, i8, i8, i8 }
%struct.nghttp2_priority_spec = type { i32, i32, i8 }
%union.nghttp2_ext_frame_payload = type { %struct.nghttp2_ext_altsvc }
%struct.nghttp2_ext_altsvc = type { ptr, i64, ptr, i64 }
%struct.nghttp2_buf = type { ptr, ptr, ptr, ptr, ptr }
%struct.nghttp2_hd_deflater = type { %struct.nghttp2_hd_context, %struct.nghttp2_hd_map, i64, i64, i8 }
%struct.nghttp2_hd_context = type { %struct.nghttp2_hd_ringbuf, ptr, i64, i64, i32, i8 }
%struct.nghttp2_hd_ringbuf = type { ptr, i64, i64, i64 }
%struct.nghttp2_hd_map = type { [128 x ptr] }
%struct.nghttp2_hd_inflater = type { %struct.nghttp2_hd_context, %struct.nghttp2_hd_huff_decode_context, %struct.nghttp2_buf, %struct.nghttp2_buf, ptr, ptr, ptr, ptr, i64, i64, i64, i64, i64, i32, i32, i8, i8, i8 }
%struct.nghttp2_hd_huff_decode_context = type { i16 }
%struct.nghttp2_session_callbacks = type { ptr, ptr, ptr, ptr, ptr, ptr, ptr, ptr, ptr, ptr, ptr, ptr, ptr, ptr, ptr, ptr, ptr, ptr, ptr, ptr, ptr, ptr, ptr, ptr, ptr, ptr, ptr, ptr }
%struct.nghttp2_mem = type { ptr, ptr, ptr, ptr, ptr }
%struct.nghttp2_ratelim = type { i64, i64, i64, i64 }
%struct.nghttp2_settings_storage = type { i32, i32, i32, i32, i32, i32, i32, i32 }
%struct.nghttp2_outbound_item = type { %union.nghttp2_frame, %union.nghttp2_ext_frame_payload, %union.nghttp2_aux_data, i64, ptr, i8 }
%union.nghttp2_aux_data = type { %struct.nghttp2_headers_aux_data }
%struct.nghttp2_headers_aux_data = type { %struct.nghttp2_data_provider_wrap, ptr, i32, i8 }
%struct.nghttp2_data_provider_wrap = type { i32, %union.anon }
%union.anon = type { %struct.anon.0 }
%struct.anon.0 = type { %union.nghttp2_data_source, ptr }
%union.nghttp2_data_source = type { ptr }
%struct.nghttp2_push_promise = type { %struct.nghttp2_frame_hd, i64, ptr, i64, i32, i8 }

; Function Attrs: nounwind uwtable
define internal i32 @session_attach_stream_item(ptr noundef %0, ptr noundef %1, ptr noundef %2) #0 {
  %4 = alloca i32, align 4
  %5 = alloca ptr, align 8
  %6 = alloca ptr, align 8
  %7 = alloca ptr, align 8
  %8 = alloca i32, align 4
  %9 = alloca i32, align 4
  store ptr %0, ptr %5, align 8, !tbaa !7
  store ptr %1, ptr %6, align 8, !tbaa !43
  store ptr %2, ptr %7, align 8, !tbaa !108
  call void @llvm.lifetime.start.p0(i64 4, ptr %8) #10
  %10 = load ptr, ptr %6, align 8, !tbaa !43
  %11 = load ptr, ptr %7, align 8, !tbaa !108
  call void @nghttp2_stream_attach_item(ptr noundef %10, ptr noundef %11)
  %12 = load ptr, ptr %5, align 8, !tbaa !7
  %13 = load ptr, ptr %6, align 8, !tbaa !43
  %14 = call i32 @session_ob_data_push(ptr noundef %12, ptr noundef %13)
  store i32 %14, ptr %8, align 4, !tbaa !3
  %15 = load i32, ptr %8, align 4, !tbaa !3
  %16 = icmp ne i32 %15, 0
  br i1 %16, label %17, label %20

17:                                               ; preds = %3
  %18 = load ptr, ptr %6, align 8, !tbaa !43
  call void @nghttp2_stream_detach_item(ptr noundef %18)
  %19 = load i32, ptr %8, align 4, !tbaa !3
  store i32 %19, ptr %4, align 4
  store i32 1, ptr %9, align 4
  br label %21

20:                                               ; preds = %3
  store i32 0, ptr %4, align 4
  store i32 1, ptr %9, align 4
  br label %21

21:                                               ; preds = %20, %17
  call void @llvm.lifetime.end.p0(i64 4, ptr %8) #10
  %22 = load i32, ptr %4, align 4
  ret i32 %22
}

; Function Attrs: nounwind uwtable
define hidden ptr @nghttp2_session_get_stream(ptr noundef %0, i32 noundef %1) #0 {
  %3 = alloca ptr, align 8
  %4 = alloca ptr, align 8
  %5 = alloca i32, align 4
  %6 = alloca ptr, align 8
  %7 = alloca i32, align 4
  store ptr %0, ptr %4, align 8, !tbaa !7
  store i32 %1, ptr %5, align 4, !tbaa !3
  call void @llvm.lifetime.start.p0(i64 8, ptr %6) #10
  %8 = load ptr, ptr %4, align 8, !tbaa !7
  %9 = getelementptr inbounds nuw %struct.nghttp2_session, ptr %8, i32 0, i32 0
  %10 = load i32, ptr %5, align 4, !tbaa !3
  %11 = call ptr @nghttp2_map_find(ptr noundef %9, i32 noundef %10)
  store ptr %11, ptr %6, align 8, !tbaa !43
  %12 = load ptr, ptr %6, align 8, !tbaa !43
  %13 = icmp eq ptr %12, null
  br i1 %13, label %26, label %14

14:                                               ; preds = %2
  %15 = load ptr, ptr %6, align 8, !tbaa !43
  %16 = getelementptr inbounds nuw %struct.nghttp2_stream, ptr %15, i32 0, i32 19
  %17 = load i8, ptr %16, align 4, !tbaa !45
  %18 = zext i8 %17 to i32
  %19 = and i32 %18, 2
  %20 = icmp ne i32 %19, 0
  br i1 %20, label %26, label %21

21:                                               ; preds = %14
  %22 = load ptr, ptr %6, align 8, !tbaa !43
  %23 = getelementptr inbounds nuw %struct.nghttp2_stream, ptr %22, i32 0, i32 0
  %24 = load i32, ptr %23, align 8, !tbaa !48
  %25 = icmp eq i32 %24, 5
  br i1 %25, label %26, label %27

26:                                               ; preds = %21, %14, %2
  store ptr null, ptr %3, align 8
  store i32 1, ptr %7, align 4
  br label %29

27:                                               ; preds = %21
  %28 = load ptr, ptr %6, align 8, !tbaa !43
  store ptr %28, ptr %3, align 8
  store i32 1, ptr %7, align 4
  br label %29

29:                                               ; preds = %27, %26
  call void @llvm.lifetime.end.p0(i64 8, ptr %6) #10
  %30 = load ptr, ptr %3, align 8
  ret ptr %30
}

; Function Attrs: nounwind uwtable
define hidden i32 @nghttp2_session_add_item(ptr noundef %0, ptr noundef %1) #0 {
  %3 = alloca i32, align 4
  %4 = alloca ptr, align 8
  %5 = alloca ptr, align 8
  %6 = alloca i32, align 4
  %7 = alloca ptr, align 8
  %8 = alloca ptr, align 8
  %9 = alloca i32, align 4
  %10 = alloca ptr, align 8
  store ptr %0, ptr %4, align 8, !tbaa !7
  store ptr %1, ptr %5, align 8, !tbaa !108
  call void @llvm.lifetime.start.p0(i64 4, ptr %6) #10
  store i32 0, ptr %6, align 4, !tbaa !3
  call void @llvm.lifetime.start.p0(i64 8, ptr %7) #10
  call void @llvm.lifetime.start.p0(i64 8, ptr %8) #10
  %11 = load ptr, ptr %5, align 8, !tbaa !108
  %12 = getelementptr inbounds nuw %struct.nghttp2_outbound_item, ptr %11, i32 0, i32 0
  store ptr %12, ptr %8, align 8, !tbaa !53
  %13 = load ptr, ptr %4, align 8, !tbaa !7
  %14 = load ptr, ptr %8, align 8, !tbaa !53
  %15 = getelementptr inbounds nuw %struct.nghttp2_frame_hd, ptr %14, i32 0, i32 1
  %16 = load i32, ptr %15, align 8, !tbaa !117
  %17 = call ptr @nghttp2_session_get_stream(ptr noundef %13, i32 noundef %16)
  store ptr %17, ptr %7, align 8, !tbaa !43
  %18 = load ptr, ptr %8, align 8, !tbaa !53
  %19 = getelementptr inbounds nuw %struct.nghttp2_frame_hd, ptr %18, i32 0, i32 2
  %20 = load i8, ptr %19, align 4, !tbaa !117
  %21 = zext i8 %20 to i32
  switch i32 %21, label %130 [
    i32 0, label %22
    i32 1, label %42
    i32 4, label %67
    i32 6, label %67
    i32 3, label %73
    i32 5, label %85
    i32 8, label %109
  ]

22:                                               ; preds = %2
  %23 = load ptr, ptr %7, align 8, !tbaa !43
  %24 = icmp ne ptr %23, null
  br i1 %24, label %26, label %25

25:                                               ; preds = %22
  store i32 -510, ptr %3, align 4
  store i32 1, ptr %9, align 4
  br label %136

26:                                               ; preds = %22
  %27 = load ptr, ptr %7, align 8, !tbaa !43
  %28 = getelementptr inbounds nuw %struct.nghttp2_stream, ptr %27, i32 0, i32 8
  %29 = load ptr, ptr %28, align 8, !tbaa !107
  %30 = icmp ne ptr %29, null
  br i1 %30, label %31, label %32

31:                                               ; preds = %26
  store i32 -529, ptr %3, align 4
  store i32 1, ptr %9, align 4
  br label %136

32:                                               ; preds = %26
  %33 = load ptr, ptr %4, align 8, !tbaa !7
  %34 = load ptr, ptr %7, align 8, !tbaa !43
  %35 = load ptr, ptr %5, align 8, !tbaa !108
  %36 = call i32 @session_attach_stream_item(ptr noundef %33, ptr noundef %34, ptr noundef %35)
  store i32 %36, ptr %6, align 4, !tbaa !3
  %37 = load i32, ptr %6, align 4, !tbaa !3
  %38 = icmp ne i32 %37, 0
  br i1 %38, label %39, label %41

39:                                               ; preds = %32
  %40 = load i32, ptr %6, align 4, !tbaa !3
  store i32 %40, ptr %3, align 4
  store i32 1, ptr %9, align 4
  br label %136

41:                                               ; preds = %32
  store i32 0, ptr %3, align 4
  store i32 1, ptr %9, align 4
  br label %136

42:                                               ; preds = %2
  %43 = load ptr, ptr %8, align 8, !tbaa !53
  %44 = getelementptr inbounds nuw %struct.nghttp2_headers, ptr %43, i32 0, i32 5
  %45 = load i32, ptr %44, align 8, !tbaa !117
  %46 = icmp eq i32 %45, 0
  br i1 %46, label %55, label %47

47:                                               ; preds = %42
  %48 = load ptr, ptr %7, align 8, !tbaa !43
  %49 = icmp ne ptr %48, null
  br i1 %49, label %50, label %61

50:                                               ; preds = %47
  %51 = load ptr, ptr %7, align 8, !tbaa !43
  %52 = getelementptr inbounds nuw %struct.nghttp2_stream, ptr %51, i32 0, i32 0
  %53 = load i32, ptr %52, align 8, !tbaa !48
  %54 = icmp eq i32 %53, 4
  br i1 %54, label %55, label %61

55:                                               ; preds = %50, %42
  %56 = load ptr, ptr %4, align 8, !tbaa !7
  %57 = getelementptr inbounds nuw %struct.nghttp2_session, ptr %56, i32 0, i32 3
  %58 = load ptr, ptr %5, align 8, !tbaa !108
  call void @nghttp2_outbound_queue_push(ptr noundef %57, ptr noundef %58)
  %59 = load ptr, ptr %5, align 8, !tbaa !108
  %60 = getelementptr inbounds nuw %struct.nghttp2_outbound_item, ptr %59, i32 0, i32 5
  store i8 1, ptr %60, align 8, !tbaa !109
  store i32 0, ptr %3, align 4
  store i32 1, ptr %9, align 4
  br label %136

61:                                               ; preds = %50, %47
  %62 = load ptr, ptr %4, align 8, !tbaa !7
  %63 = getelementptr inbounds nuw %struct.nghttp2_session, ptr %62, i32 0, i32 2
  %64 = load ptr, ptr %5, align 8, !tbaa !108
  call void @nghttp2_outbound_queue_push(ptr noundef %63, ptr noundef %64)
  %65 = load ptr, ptr %5, align 8, !tbaa !108
  %66 = getelementptr inbounds nuw %struct.nghttp2_outbound_item, ptr %65, i32 0, i32 5
  store i8 1, ptr %66, align 8, !tbaa !109
  store i32 0, ptr %3, align 4
  store i32 1, ptr %9, align 4
  br label %136

67:                                               ; preds = %2, %2
  %68 = load ptr, ptr %4, align 8, !tbaa !7
  %69 = getelementptr inbounds nuw %struct.nghttp2_session, ptr %68, i32 0, i32 1
  %70 = load ptr, ptr %5, align 8, !tbaa !108
  call void @nghttp2_outbound_queue_push(ptr noundef %69, ptr noundef %70)
  %71 = load ptr, ptr %5, align 8, !tbaa !108
  %72 = getelementptr inbounds nuw %struct.nghttp2_outbound_item, ptr %71, i32 0, i32 5
  store i8 1, ptr %72, align 8, !tbaa !109
  store i32 0, ptr %3, align 4
  store i32 1, ptr %9, align 4
  br label %136

73:                                               ; preds = %2
  %74 = load ptr, ptr %7, align 8, !tbaa !43
  %75 = icmp ne ptr %74, null
  br i1 %75, label %76, label %79

76:                                               ; preds = %73
  %77 = load ptr, ptr %7, align 8, !tbaa !43
  %78 = getelementptr inbounds nuw %struct.nghttp2_stream, ptr %77, i32 0, i32 0
  store i32 3, ptr %78, align 8, !tbaa !48
  br label %79

79:                                               ; preds = %76, %73
  %80 = load ptr, ptr %4, align 8, !tbaa !7
  %81 = getelementptr inbounds nuw %struct.nghttp2_session, ptr %80, i32 0, i32 2
  %82 = load ptr, ptr %5, align 8, !tbaa !108
  call void @nghttp2_outbound_queue_push(ptr noundef %81, ptr noundef %82)
  %83 = load ptr, ptr %5, align 8, !tbaa !108
  %84 = getelementptr inbounds nuw %struct.nghttp2_outbound_item, ptr %83, i32 0, i32 5
  store i8 1, ptr %84, align 8, !tbaa !109
  store i32 0, ptr %3, align 4
  store i32 1, ptr %9, align 4
  br label %136

85:                                               ; preds = %2
  call void @llvm.lifetime.start.p0(i64 8, ptr %10) #10
  %86 = load ptr, ptr %5, align 8, !tbaa !108
  %87 = getelementptr inbounds nuw %struct.nghttp2_outbound_item, ptr %86, i32 0, i32 2
  store ptr %87, ptr %10, align 8, !tbaa !53
  %88 = load ptr, ptr %7, align 8, !tbaa !43
  %89 = icmp ne ptr %88, null
  br i1 %89, label %91, label %90

90:                                               ; preds = %85
  store i32 -510, ptr %3, align 4
  store i32 1, ptr %9, align 4
  br label %108

91:                                               ; preds = %85
  %92 = load ptr, ptr %4, align 8, !tbaa !7
  %93 = load ptr, ptr %8, align 8, !tbaa !53
  %94 = getelementptr inbounds nuw %struct.nghttp2_push_promise, ptr %93, i32 0, i32 4
  %95 = load i32, ptr %94, align 8, !tbaa !117
  %96 = load ptr, ptr %10, align 8, !tbaa !53
  %97 = getelementptr inbounds nuw %struct.nghttp2_headers_aux_data, ptr %96, i32 0, i32 1
  %98 = load ptr, ptr %97, align 8, !tbaa !124
  %99 = call ptr @nghttp2_session_open_stream(ptr noundef %92, i32 noundef %95, i8 noundef zeroext 0, i32 noundef 4, ptr noundef %98)
  %100 = icmp ne ptr %99, null
  br i1 %100, label %102, label %101

101:                                              ; preds = %91
  store i32 -901, ptr %3, align 4
  store i32 1, ptr %9, align 4
  br label %108

102:                                              ; preds = %91
  %103 = load ptr, ptr %4, align 8, !tbaa !7
  %104 = getelementptr inbounds nuw %struct.nghttp2_session, ptr %103, i32 0, i32 2
  %105 = load ptr, ptr %5, align 8, !tbaa !108
  call void @nghttp2_outbound_queue_push(ptr noundef %104, ptr noundef %105)
  %106 = load ptr, ptr %5, align 8, !tbaa !108
  %107 = getelementptr inbounds nuw %struct.nghttp2_outbound_item, ptr %106, i32 0, i32 5
  store i8 1, ptr %107, align 8, !tbaa !109
  store i32 0, ptr %3, align 4
  store i32 1, ptr %9, align 4
  br label %108

108:                                              ; preds = %102, %101, %90
  call void @llvm.lifetime.end.p0(i64 8, ptr %10) #10
  br label %136

109:                                              ; preds = %2
  %110 = load ptr, ptr %7, align 8, !tbaa !43
  %111 = icmp ne ptr %110, null
  br i1 %111, label %112, label %115

112:                                              ; preds = %109
  %113 = load ptr, ptr %7, align 8, !tbaa !43
  %114 = getelementptr inbounds nuw %struct.nghttp2_stream, ptr %113, i32 0, i32 22
  store i8 1, ptr %114, align 1, !tbaa !127
  br label %124

115:                                              ; preds = %109
  %116 = load ptr, ptr %8, align 8, !tbaa !53
  %117 = getelementptr inbounds nuw %struct.nghttp2_frame_hd, ptr %116, i32 0, i32 1
  %118 = load i32, ptr %117, align 8, !tbaa !117
  %119 = icmp eq i32 %118, 0
  br i1 %119, label %120, label %123

120:                                              ; preds = %115
  %121 = load ptr, ptr %4, align 8, !tbaa !7
  %122 = getelementptr inbounds nuw %struct.nghttp2_session, ptr %121, i32 0, i32 51
  store i8 1, ptr %122, align 1, !tbaa !128
  br label %123

123:                                              ; preds = %120, %115
  br label %124

124:                                              ; preds = %123, %112
  %125 = load ptr, ptr %4, align 8, !tbaa !7
  %126 = getelementptr inbounds nuw %struct.nghttp2_session, ptr %125, i32 0, i32 2
  %127 = load ptr, ptr %5, align 8, !tbaa !108
  call void @nghttp2_outbound_queue_push(ptr noundef %126, ptr noundef %127)
  %128 = load ptr, ptr %5, align 8, !tbaa !108
  %129 = getelementptr inbounds nuw %struct.nghttp2_outbound_item, ptr %128, i32 0, i32 5
  store i8 1, ptr %129, align 8, !tbaa !109
  store i32 0, ptr %3, align 4
  store i32 1, ptr %9, align 4
  br label %136

130:                                              ; preds = %2
  %131 = load ptr, ptr %4, align 8, !tbaa !7
  %132 = getelementptr inbounds nuw %struct.nghttp2_session, ptr %131, i32 0, i32 2
  %133 = load ptr, ptr %5, align 8, !tbaa !108
  call void @nghttp2_outbound_queue_push(ptr noundef %132, ptr noundef %133)
  %134 = load ptr, ptr %5, align 8, !tbaa !108
  %135 = getelementptr inbounds nuw %struct.nghttp2_outbound_item, ptr %134, i32 0, i32 5
  store i8 1, ptr %135, align 8, !tbaa !109
  store i32 0, ptr %3, align 4
  store i32 1, ptr %9, align 4
  br label %136

136:                                              ; preds = %130, %124, %108, %79, %67, %61, %55, %41, %39, %31, %25
  call void @llvm.lifetime.end.p0(i64 8, ptr %8) #10
  call void @llvm.lifetime.end.p0(i64 8, ptr %7) #10
  call void @llvm.lifetime.end.p0(i64 4, ptr %6) #10
  %137 = load i32, ptr %3, align 4
  ret i32 %137
}