; Function Attrs: nounwind uwtable
define hidden i32 @nghttp2_session_add_item(ptr noundef %0, ptr noundef %1) local_unnamed_addr #1 {
  %3 = getelementptr inbounds nuw i8, ptr %1, i64 8
  %4 = load i32, ptr %3, align 8, !tbaa !113
  %5 = tail call ptr @nghttp2_map_find(ptr noundef %0, i32 noundef %4) #16
  %6 = icmp eq ptr %5, null
  br i1 %6, label %nghttp2_session_get_stream.exit, label %7

7:                                                ; preds = %2
  %8 = getelementptr inbounds nuw i8, ptr %5, i64 116
  %9 = load i8, ptr %8, align 4, !tbaa !38
  %10 = and i8 %9, 2
  %.not.i = icmp eq i8 %10, 0
  br i1 %.not.i, label %11, label %nghttp2_session_get_stream.exit

11:                                               ; preds = %7
  %12 = load i32, ptr %5, align 8, !tbaa !42
  %13 = icmp eq i32 %12, 5
  %spec.select.i = select i1 %13, ptr null, ptr %5
  br label %nghttp2_session_get_stream.exit

nghttp2_session_get_stream.exit:                  ; preds = %2, %7, %11
  %.0.i = phi ptr [ null, %7 ], [ null, %2 ], [ %spec.select.i, %11 ]
  %14 = getelementptr inbounds nuw i8, ptr %1, i64 12
  %15 = load i8, ptr %14, align 4, !tbaa !113
  switch i8 %15, label %66 [
    i8 0, label %16
    i8 1, label %23
    i8 4, label %37
    i8 6, label %37
    i8 3, label %40
    i8 5, label %45
    i8 8, label %55
  ]

16:                                               ; preds = %nghttp2_session_get_stream.exit
  %.not53 = icmp eq ptr %.0.i, null
  br i1 %.not53, label %session_attach_stream_item.exit, label %17

17:                                               ; preds = %16
  %18 = getelementptr inbounds nuw i8, ptr %.0.i, i64 64
  %19 = load ptr, ptr %18, align 8, !tbaa !110
  %.not54 = icmp eq ptr %19, null
  br i1 %.not54, label %20, label %session_attach_stream_item.exit

20:                                               ; preds = %17
  tail call void @nghttp2_stream_attach_item(ptr noundef nonnull %.0.i, ptr noundef nonnull %1) #16
  %21 = tail call fastcc i32 @session_ob_data_push(ptr noundef %0, ptr noundef nonnull %.0.i)
  %.not.i56 = icmp eq i32 %21, 0
  br i1 %.not.i56, label %session_attach_stream_item.exit, label %22

22:                                               ; preds = %20
  tail call void @nghttp2_stream_detach_item(ptr noundef nonnull %.0.i) #16
  br label %session_attach_stream_item.exit

23:                                               ; preds = %nghttp2_session_get_stream.exit
  %24 = getelementptr inbounds nuw i8, ptr %1, i64 56
  %25 = load i32, ptr %24, align 8, !tbaa !113
  %26 = icmp eq i32 %25, 0
  br i1 %26, label %31, label %27

27:                                               ; preds = %23
  %.not52 = icmp eq ptr %.0.i, null
  br i1 %.not52, label %34, label %28

28:                                               ; preds = %27
  %29 = load i32, ptr %.0.i, align 8, !tbaa !42
  %30 = icmp eq i32 %29, 4
  br i1 %30, label %31, label %34

31:                                               ; preds = %28, %23
  %32 = getelementptr inbounds nuw i8, ptr %0, i64 80
  tail call void @nghttp2_outbound_queue_push(ptr noundef nonnull %32, ptr noundef nonnull %1) #16
  %33 = getelementptr inbounds nuw i8, ptr %1, i64 152
  store i8 1, ptr %33, align 8, !tbaa !111
  br label %session_attach_stream_item.exit

34:                                               ; preds = %28, %27
  %35 = getelementptr inbounds nuw i8, ptr %0, i64 56
  tail call void @nghttp2_outbound_queue_push(ptr noundef nonnull %35, ptr noundef nonnull %1) #16
  %36 = getelementptr inbounds nuw i8, ptr %1, i64 152
  store i8 1, ptr %36, align 8, !tbaa !111
  br label %session_attach_stream_item.exit

37:                                               ; preds = %nghttp2_session_get_stream.exit, %nghttp2_session_get_stream.exit
  %38 = getelementptr inbounds nuw i8, ptr %0, i64 32
  tail call void @nghttp2_outbound_queue_push(ptr noundef nonnull %38, ptr noundef nonnull %1) #16
  %39 = getelementptr inbounds nuw i8, ptr %1, i64 152
  store i8 1, ptr %39, align 8, !tbaa !111
  br label %session_attach_stream_item.exit

40:                                               ; preds = %nghttp2_session_get_stream.exit
  %.not51 = icmp eq ptr %.0.i, null
  br i1 %.not51, label %42, label %41

41:                                               ; preds = %40
  store i32 3, ptr %.0.i, align 8, !tbaa !42
  br label %42

42:                                               ; preds = %41, %40
  %43 = getelementptr inbounds nuw i8, ptr %0, i64 56
  tail call void @nghttp2_outbound_queue_push(ptr noundef nonnull %43, ptr noundef nonnull %1) #16
  %44 = getelementptr inbounds nuw i8, ptr %1, i64 152
  store i8 1, ptr %44, align 8, !tbaa !111
  br label %session_attach_stream_item.exit

45:                                               ; preds = %nghttp2_session_get_stream.exit
  %.not49 = icmp eq ptr %.0.i, null
  br i1 %.not49, label %session_attach_stream_item.exit, label %46

46:                                               ; preds = %45
  %47 = getelementptr inbounds nuw i8, ptr %1, i64 40
  %48 = load i32, ptr %47, align 8, !tbaa !113
  %49 = getelementptr inbounds nuw i8, ptr %1, i64 120
  %50 = load ptr, ptr %49, align 8, !tbaa !117
  %51 = tail call ptr @nghttp2_session_open_stream(ptr noundef %0, i32 noundef %48, i8 noundef zeroext 0, i32 noundef 4, ptr noundef %50)
  %.not50 = icmp eq ptr %51, null
  br i1 %.not50, label %session_attach_stream_item.exit, label %52

52:                                               ; preds = %46
  %53 = getelementptr inbounds nuw i8, ptr %0, i64 56
  tail call void @nghttp2_outbound_queue_push(ptr noundef nonnull %53, ptr noundef nonnull %1) #16
  %54 = getelementptr inbounds nuw i8, ptr %1, i64 152
  store i8 1, ptr %54, align 8, !tbaa !111
  br label %session_attach_stream_item.exit

55:                                               ; preds = %nghttp2_session_get_stream.exit
  %.not = icmp eq ptr %.0.i, null
  br i1 %.not, label %58, label %56

56:                                               ; preds = %55
  %57 = getelementptr inbounds nuw i8, ptr %.0.i, i64 119
  store i8 1, ptr %57, align 1, !tbaa !120
  br label %63

58:                                               ; preds = %55
  %59 = load i32, ptr %3, align 8, !tbaa !113
  %60 = icmp eq i32 %59, 0
  br i1 %60, label %61, label %63

61:                                               ; preds = %58
  %62 = getelementptr inbounds nuw i8, ptr %0, i64 2677
  store i8 1, ptr %62, align 1, !tbaa !121
  br label %63

63:                                               ; preds = %58, %61, %56
  %64 = getelementptr inbounds nuw i8, ptr %0, i64 56
  tail call void @nghttp2_outbound_queue_push(ptr noundef nonnull %64, ptr noundef nonnull %1) #16
  %65 = getelementptr inbounds nuw i8, ptr %1, i64 152
  store i8 1, ptr %65, align 8, !tbaa !111
  br label %session_attach_stream_item.exit

66:                                               ; preds = %nghttp2_session_get_stream.exit
  %67 = getelementptr inbounds nuw i8, ptr %0, i64 56
  tail call void @nghttp2_outbound_queue_push(ptr noundef nonnull %67, ptr noundef nonnull %1) #16
  %68 = getelementptr inbounds nuw i8, ptr %1, i64 152
  store i8 1, ptr %68, align 8, !tbaa !111
  br label %session_attach_stream_item.exit

session_attach_stream_item.exit:                  ; preds = %22, %20, %52, %45, %46, %17, %16, %66, %63, %42, %37, %34, %31
  %.0 = phi i32 [ 0, %66 ], [ 0, %63 ], [ 0, %42 ], [ 0, %37 ], [ 0, %31 ], [ 0, %34 ], [ -510, %16 ], [ -529, %17 ], [ 0, %52 ], [ -510, %45 ], [ -901, %46 ], [ 0, %20 ], [ %21, %22 ]
  ret i32 %.0
}